(dp0
S'TARGET-30-PARACS-01'
p1
I36
sS'TARGET-30-PATGLU-01'
p2
I64
sS'TARGET-30-PALBFW-01'
p3
I3
sS'TARGET-30-PALXTB-01'
p4
I11
sS'TARGET-30-PALETP-01'
p5
I5
sS'TARGET-30-PALTEG-01'
p6
I8
sS'TARGET-30-PATHVK-01'
p7
I65
sS'TARGET-30-PARDIW-01'
p8
I38
sS'TARGET-30-PARZIP-01'
p9
I46
sS'TARGET-30-PAPUEB-01'
p10
I32
sS'TARGET-30-PASWIJ-01'
p11
I57
sS'TARGET-30-PASNEF-01'
p12
I49
sS'TARGET-30-PATINJ-01'
p13
I66
sS'TARGET-30-PATFCY-01'
p14
I63
sS'TARGET-30-PARFWB-01'
p15
I39
sS'TARGET-30-PANZPV-01'
p16
I23
sS'TARGET-30-PARSBI-01'
p17
I44
sS'TARGET-30-PANBSP-01'
p18
I14
sS'TARGET-30-PASPER-01'
p19
I50
sS'TARGET-30-PANRVJ-01'
p20
I19
sS'TARGET-30-PATDXC-01'
p21
I62
sS'TARGET-30-PARBGP-01'
p22
I37
sS'TARGET-30-PAPEAV-01'
p23
I27
sS'TARGET-30-PATYIL-02'
p24
I69
sS'TARGET-30-PAMYCE-01'
p25
I12
sS'TARGET-30-PAPHPE-01'
p26
I28
sS'TARGET-30-PASRFS-01'
p27
I51
sS'TARGET-30-PARKGJ-01'
p28
I43
sS'TARGET-30-PANRRW-01'
p29
I18
sS'TARGET-30-PALIIN-01'
p30
I6
sS'TARGET-30-PASTCN-01'
p31
I53
sS'TARGET-30-PANRHJ-01'
p32
I17
sS'TARGET-30-PASFGG-01'
p33
I47
sS'TARGET-30-PASYPX-01'
p34
I60
sS'TARGET-30-PAPUAR-01'
p35
I31
sS'TARGET-30-PANYGR-01'
p36
I22
sS'TARGET-30-PARGKK-01'
p37
I40
sS'TARGET-30-PANBJH-01'
p38
I13
sS'TARGET-30-PASSRS-01'
p39
I52
sS'TARGET-30-PATNKP-02'
p40
I67
sS'TARGET-30-PALWVJ-01'
p41
I10
sS'TARGET-30-PANUIF-01'
p42
I20
sS'TARGET-30-PAPBZI-01'
p43
I26
sS'TARGET-30-PAPVFD-01'
p44
I34
sS'TARGET-30-PAPKXS-01'
p45
I29
sS'TARGET-30-PAPBGH-01'
p46
I25
sS'TARGET-30-PARYNK-01'
p47
I45
sS'TARGET-30-PAPLSD-01'
p48
I30
sS'TARGET-30-PARHAM-01'
p49
I41
sS'TARGET-30-PARHAM-02'
p50
I42
sS'TARGET-30-PAITCI-01'
p51
I0
sS'TARGET-30-PAIVHE-01'
p52
I2
sS'TARGET-30-PATYIL-01'
p53
I68
sS'TARGET-30-PASTKC-01'
p54
I54
sS'TARGET-30-PASUYG-01'
p55
I56
sS'TARGET-30-PANNMS-01'
p56
I16
sS'TARGET-30-PANZVU-01'
p57
I24
sS'TARGET-30-PANKFE-01'
p58
I15
sS'TARGET-30-PANWRR-01'
p59
I21
sS'TARGET-30-PASXRJ-01'
p60
I59
sS'TARGET-30-PASUCB-01'
p61
I55
sS'TARGET-30-PASMNT-01'
p62
I48
sS'TARGET-30-PAPUWY-01'
p63
I33
sS'TARGET-30-PASXHE-01'
p64
I58
sS'TARGET-30-PATCFL-01'
p65
I61
sS'TARGET-30-PALCBW-01'
p66
I4
sS'TARGET-30-PALNVP-01'
p67
I7
sS'TARGET-30-PAITEG-01'
p68
I1
sS'TARGET-30-PALUYS-01'
p69
I9
sS'TARGET-30-PAPVXS-01'
p70
I35
s.